; Listing generated by Microsoft (R) Optimizing Compiler Version 19.16.27048.0 

	TITLE	C:\Users\Pentester\source\repos\CountChars\CountChars\CountChars.cpp
	.686P
	.XMM
	include listing.inc
	.model	flat

INCLUDELIB MSVCRTD
INCLUDELIB OLDNAMES

msvcjmc	SEGMENT
__2CC6E67D_corecrt_stdio_config@h DB 01H
__05476D76_corecrt_wstdio@h DB 01H
__A452D4A0_stdio@h DB 01H
__4384A2D9_corecrt_memcpy_s@h DB 01H
__41381B41_corecrt_wconio@h DB 01H
__F0CC4AC4_corecrt_wio@h DB 01H
__4E51A221_corecrt_wstring@h DB 01H
__C0802A2B_corecrt_wtime@h DB 01H
__A40A425D_stat@h DB 01H
__5A74375D_wchar@h DB 01H
__6B9C2DC0_tchar@h DB 01H
__6BC0FD35_vcruntime_new@h DB 01H
__A73354DD_stdlib@h DB 01H
__188180DA_corecrt_math@h DB 01H
__D23EE329_cstdlib DB 01H
__3736D25A_xtgmath@h DB 01H
__824D367B_cmath DB 01H
__2088847F_corecrt_memory@h DB 01H
__2140C079_string@h DB 01H
__5ECFF36E_type_traits DB 01H
__331E732B_malloc@h DB 01H
__9BB4E194_vcruntime_exception@h DB 01H
__7949CB39_exception DB 01H
__B2D003D7_limits DB 01H
__7E39D651_iosfwd DB 01H
__CDB00636_xutility DB 01H
__C334353D_xatomic0@h DB 01H
__1CE3C767_xmemory0 DB 01H
__F007F164_stdexcept DB 01H
__C42C8B73_vcruntime_typeinfo@h DB 01H
__7B7A869E_ctype@h DB 01H
__A2E616E7_xlocinfo DB 01H
__0E7E0F59_memory DB 01H
__223B5856_xfacet DB 01H
__244BF7CC_xlocale DB 01H
__420D52D3_xcall_once@h DB 01H
__FD5040F3_system_error DB 01H
__9B0361F4_xiosbase DB 01H
__BACC91DB_xlocnum DB 01H
__D1FEDD45_ios DB 01H
__7AAD89C5_string DB 01H
__173DFAAD_countchars@cpp DB 01H
__FB7583FD_xstring DB 01H
__548B1832_istream DB 01H
__375B2D08_ostream DB 01H
__F2A749D8_streambuf DB 01H
__E53366A2_utility DB 01H
__122CF1B0_xstddef DB 01H
msvcjmc	ENDS
PUBLIC	?__empty_global_delete@@YAXPAX@Z		; __empty_global_delete
PUBLIC	?__empty_global_delete@@YAXPAXI@Z		; __empty_global_delete
PUBLIC	___local_stdio_printf_options
PUBLIC	__vfwprintf_l
PUBLIC	_wprintf
PUBLIC	_wmain
PUBLIC	__JustMyCode_Default
PUBLIC	?_OptionsStorage@?1??__local_stdio_printf_options@@9@4_KA ; `__local_stdio_printf_options'::`2'::_OptionsStorage
PUBLIC	??_C@_1EM@FHPBCPEL@?$AAF?$AAo?$AAu?$AAr?$AA?5?$AAs?$AAc?$AAo?$AAr?$AAe?$AA?5?$AAa?$AAn?$AAd?$AA?5@ ; `string'
PUBLIC	??_C@_1CE@LOGBMABD@?$AA?6?$AAT?$AAe?$AAs?$AAt?$AA?5?$AAs?$AAt?$AAr?$AAi?$AAn?$AAg?$AA?3?$AA?5?$AA?$CF@ ; `string'
PUBLIC	??_C@_1DG@IBODIFC@?$AA?7?$AAS?$AAe?$AAa?$AAr?$AAc?$AAh?$AAC?$AAh?$AAa?$AAr?$AA?3?$AA?5?$AA?$CF?$AAc@ ; `string'
PUBLIC	??_C@_1EG@PCBEIANO@?$AAR?$AAe?$AAd?$AA?5?$AAG?$AAr?$AAe?$AAe?$AAn?$AA?5?$AAB?$AAl?$AAu?$AAe?$AA?5@ ; `string'
EXTRN	__imp____acrt_iob_func:PROC
EXTRN	__imp____stdio_common_vfwprintf:PROC
EXTRN	_CountChars_:PROC
EXTRN	@__CheckForDebuggerJustMyCode@4:PROC
EXTRN	__RTC_CheckEsp:PROC
EXTRN	__RTC_InitBase:PROC
EXTRN	__RTC_Shutdown:PROC
;	COMDAT ?_OptionsStorage@?1??__local_stdio_printf_options@@9@4_KA
_BSS	SEGMENT
?_OptionsStorage@?1??__local_stdio_printf_options@@9@4_KA DQ 01H DUP (?) ; `__local_stdio_printf_options'::`2'::_OptionsStorage
_BSS	ENDS
;	COMDAT rtc$TMZ
rtc$TMZ	SEGMENT
__RTC_Shutdown.rtc$TMZ DD FLAT:__RTC_Shutdown
rtc$TMZ	ENDS
;	COMDAT rtc$IMZ
rtc$IMZ	SEGMENT
__RTC_InitBase.rtc$IMZ DD FLAT:__RTC_InitBase
rtc$IMZ	ENDS
;	COMDAT ??_C@_1EG@PCBEIANO@?$AAR?$AAe?$AAd?$AA?5?$AAG?$AAr?$AAe?$AAe?$AAn?$AA?5?$AAB?$AAl?$AAu?$AAe?$AA?5@
CONST	SEGMENT
??_C@_1EG@PCBEIANO@?$AAR?$AAe?$AAd?$AA?5?$AAG?$AAr?$AAe?$AAe?$AAn?$AA?5?$AAB?$AAl?$AAu?$AAe?$AA?5@ DB 'R'
	DB	00H, 'e', 00H, 'd', 00H, ' ', 00H, 'G', 00H, 'r', 00H, 'e', 00H
	DB	'e', 00H, 'n', 00H, ' ', 00H, 'B', 00H, 'l', 00H, 'u', 00H, 'e'
	DB	00H, ' ', 00H, 'C', 00H, 'y', 00H, 'a', 00H, 'n', 00H, ' ', 00H
	DB	'M', 00H, 'a', 00H, 'g', 00H, 'e', 00H, 'n', 00H, 't', 00H, 'a'
	DB	00H, ' ', 00H, 'Y', 00H, 'e', 00H, 'l', 00H, 'l', 00H, 'o', 00H
	DB	'w', 00H, 00H, 00H				; `string'
CONST	ENDS
;	COMDAT ??_C@_1DG@IBODIFC@?$AA?7?$AAS?$AAe?$AAa?$AAr?$AAc?$AAh?$AAC?$AAh?$AAa?$AAr?$AA?3?$AA?5?$AA?$CF?$AAc@
CONST	SEGMENT
??_C@_1DG@IBODIFC@?$AA?7?$AAS?$AAe?$AAa?$AAr?$AAc?$AAh?$AAC?$AAh?$AAa?$AAr?$AA?3?$AA?5?$AA?$CF?$AAc@ DB 09H
	DB	00H, 'S', 00H, 'e', 00H, 'a', 00H, 'r', 00H, 'c', 00H, 'h', 00H
	DB	'C', 00H, 'h', 00H, 'a', 00H, 'r', 00H, ':', 00H, ' ', 00H, '%'
	DB	00H, 'c', 00H, ' ', 00H, 'C', 00H, 'o', 00H, 'u', 00H, 'n', 00H
	DB	't', 00H, ':', 00H, ' ', 00H, '%', 00H, 'd', 00H, 0aH, 00H, 00H
	DB	00H						; `string'
CONST	ENDS
;	COMDAT ??_C@_1CE@LOGBMABD@?$AA?6?$AAT?$AAe?$AAs?$AAt?$AA?5?$AAs?$AAt?$AAr?$AAi?$AAn?$AAg?$AA?3?$AA?5?$AA?$CF@
CONST	SEGMENT
??_C@_1CE@LOGBMABD@?$AA?6?$AAT?$AAe?$AAs?$AAt?$AA?5?$AAs?$AAt?$AAr?$AAi?$AAn?$AAg?$AA?3?$AA?5?$AA?$CF@ DB 0aH
	DB	00H, 'T', 00H, 'e', 00H, 's', 00H, 't', 00H, ' ', 00H, 's', 00H
	DB	't', 00H, 'r', 00H, 'i', 00H, 'n', 00H, 'g', 00H, ':', 00H, ' '
	DB	00H, '%', 00H, 's', 00H, 0aH, 00H, 00H, 00H	; `string'
CONST	ENDS
;	COMDAT ??_C@_1EM@FHPBCPEL@?$AAF?$AAo?$AAu?$AAr?$AA?5?$AAs?$AAc?$AAo?$AAr?$AAe?$AA?5?$AAa?$AAn?$AAd?$AA?5@
CONST	SEGMENT
??_C@_1EM@FHPBCPEL@?$AAF?$AAo?$AAu?$AAr?$AA?5?$AAs?$AAc?$AAo?$AAr?$AAe?$AA?5?$AAa?$AAn?$AAd?$AA?5@ DB 'F'
	DB	00H, 'o', 00H, 'u', 00H, 'r', 00H, ' ', 00H, 's', 00H, 'c', 00H
	DB	'o', 00H, 'r', 00H, 'e', 00H, ' ', 00H, 'a', 00H, 'n', 00H, 'd'
	DB	00H, ' ', 00H, 's', 00H, 'e', 00H, 'v', 00H, 'e', 00H, 'n', 00H
	DB	' ', 00H, 's', 00H, 'e', 00H, 'c', 00H, 'o', 00H, 'n', 00H, 'd'
	DB	00H, 's', 00H, ' ', 00H, 'a', 00H, 'g', 00H, 'o', 00H, ',', 00H
	DB	' ', 00H, '.', 00H, '.', 00H, '.', 00H, 00H, 00H ; `string'
CONST	ENDS
; Function compile flags: /Odt
;	COMDAT __JustMyCode_Default
_TEXT	SEGMENT
__JustMyCode_Default PROC				; COMDAT
  00000	55		 push	 ebp
  00001	8b ec		 mov	 ebp, esp
  00003	5d		 pop	 ebp
  00004	c3		 ret	 0
__JustMyCode_Default ENDP
_TEXT	ENDS
; Function compile flags: /Odtp /RTCsu /ZI
; File c:\users\pentester\source\repos\countchars\countchars\countchars.cpp
;	COMDAT _wmain
_TEXT	SEGMENT
_str2$ = -32						; size = 4
_str1$ = -20						; size = 4
_c$ = -8						; size = 2
_argc$ = 8						; size = 4
_argv$ = 12						; size = 4
_wmain	PROC						; COMDAT

; 10   : {

  00000	55		 push	 ebp
  00001	8b ec		 mov	 ebp, esp
  00003	81 ec e4 00 00
	00		 sub	 esp, 228		; 000000e4H
  00009	53		 push	 ebx
  0000a	56		 push	 esi
  0000b	57		 push	 edi
  0000c	8d bd 1c ff ff
	ff		 lea	 edi, DWORD PTR [ebp-228]
  00012	b9 39 00 00 00	 mov	 ecx, 57			; 00000039H
  00017	b8 cc cc cc cc	 mov	 eax, -858993460		; ccccccccH
  0001c	f3 ab		 rep stosd
  0001e	b9 00 00 00 00	 mov	 ecx, OFFSET __173DFAAD_countchars@cpp
  00023	e8 00 00 00 00	 call	 @__CheckForDebuggerJustMyCode@4

; 11   : 	wchar_t c;
; 12   : 
; 13   : 	const wchar_t * str1 = L"Four score and seven seconds ago, ...";

  00028	c7 45 ec 00 00
	00 00		 mov	 DWORD PTR _str1$[ebp], OFFSET ??_C@_1EM@FHPBCPEL@?$AAF?$AAo?$AAu?$AAr?$AA?5?$AAs?$AAc?$AAo?$AAr?$AAe?$AA?5?$AAa?$AAn?$AAd?$AA?5@

; 14   : 	wprintf(L"\nTest string: %s\n", str1);

  0002f	8b 45 ec	 mov	 eax, DWORD PTR _str1$[ebp]
  00032	50		 push	 eax
  00033	68 00 00 00 00	 push	 OFFSET ??_C@_1CE@LOGBMABD@?$AA?6?$AAT?$AAe?$AAs?$AAt?$AA?5?$AAs?$AAt?$AAr?$AAi?$AAn?$AAg?$AA?3?$AA?5?$AA?$CF@
  00038	e8 00 00 00 00	 call	 _wprintf
  0003d	83 c4 08	 add	 esp, 8

; 15   : 	c = L's';

  00040	b8 73 00 00 00	 mov	 eax, 115		; 00000073H
  00045	66 89 45 f8	 mov	 WORD PTR _c$[ebp], ax

; 16   : 	wprintf(L"\tSearchChar: %c Count: %d\n", c, CountChars_(str1, c));

  00049	0f b7 45 f8	 movzx	 eax, WORD PTR _c$[ebp]
  0004d	50		 push	 eax
  0004e	8b 4d ec	 mov	 ecx, DWORD PTR _str1$[ebp]
  00051	51		 push	 ecx
  00052	e8 00 00 00 00	 call	 _CountChars_
  00057	83 c4 08	 add	 esp, 8
  0005a	50		 push	 eax
  0005b	0f b7 55 f8	 movzx	 edx, WORD PTR _c$[ebp]
  0005f	52		 push	 edx
  00060	68 00 00 00 00	 push	 OFFSET ??_C@_1DG@IBODIFC@?$AA?7?$AAS?$AAe?$AAa?$AAr?$AAc?$AAh?$AAC?$AAh?$AAa?$AAr?$AA?3?$AA?5?$AA?$CF?$AAc@
  00065	e8 00 00 00 00	 call	 _wprintf
  0006a	83 c4 0c	 add	 esp, 12			; 0000000cH

; 17   : 	c = L'F';

  0006d	b8 46 00 00 00	 mov	 eax, 70			; 00000046H
  00072	66 89 45 f8	 mov	 WORD PTR _c$[ebp], ax

; 18   : 	wprintf(L"\tSearchChar: %c Count: %d\n", c, CountChars_(str1, c));

  00076	0f b7 45 f8	 movzx	 eax, WORD PTR _c$[ebp]
  0007a	50		 push	 eax
  0007b	8b 4d ec	 mov	 ecx, DWORD PTR _str1$[ebp]
  0007e	51		 push	 ecx
  0007f	e8 00 00 00 00	 call	 _CountChars_
  00084	83 c4 08	 add	 esp, 8
  00087	50		 push	 eax
  00088	0f b7 55 f8	 movzx	 edx, WORD PTR _c$[ebp]
  0008c	52		 push	 edx
  0008d	68 00 00 00 00	 push	 OFFSET ??_C@_1DG@IBODIFC@?$AA?7?$AAS?$AAe?$AAa?$AAr?$AAc?$AAh?$AAC?$AAh?$AAa?$AAr?$AA?3?$AA?5?$AA?$CF?$AAc@
  00092	e8 00 00 00 00	 call	 _wprintf
  00097	83 c4 0c	 add	 esp, 12			; 0000000cH

; 19   : 	c = L'o';

  0009a	b8 6f 00 00 00	 mov	 eax, 111		; 0000006fH
  0009f	66 89 45 f8	 mov	 WORD PTR _c$[ebp], ax

; 20   : 	wprintf(L"\tSearchChar: %c Count: %d\n", c, CountChars_(str1, c));

  000a3	0f b7 45 f8	 movzx	 eax, WORD PTR _c$[ebp]
  000a7	50		 push	 eax
  000a8	8b 4d ec	 mov	 ecx, DWORD PTR _str1$[ebp]
  000ab	51		 push	 ecx
  000ac	e8 00 00 00 00	 call	 _CountChars_
  000b1	83 c4 08	 add	 esp, 8
  000b4	50		 push	 eax
  000b5	0f b7 55 f8	 movzx	 edx, WORD PTR _c$[ebp]
  000b9	52		 push	 edx
  000ba	68 00 00 00 00	 push	 OFFSET ??_C@_1DG@IBODIFC@?$AA?7?$AAS?$AAe?$AAa?$AAr?$AAc?$AAh?$AAC?$AAh?$AAa?$AAr?$AA?3?$AA?5?$AA?$CF?$AAc@
  000bf	e8 00 00 00 00	 call	 _wprintf
  000c4	83 c4 0c	 add	 esp, 12			; 0000000cH

; 21   : 	c = L'z';

  000c7	b8 7a 00 00 00	 mov	 eax, 122		; 0000007aH
  000cc	66 89 45 f8	 mov	 WORD PTR _c$[ebp], ax

; 22   : 	wprintf(L"\tSearchChar: %c Count: %d\n", c, CountChars_(str1, c));

  000d0	0f b7 45 f8	 movzx	 eax, WORD PTR _c$[ebp]
  000d4	50		 push	 eax
  000d5	8b 4d ec	 mov	 ecx, DWORD PTR _str1$[ebp]
  000d8	51		 push	 ecx
  000d9	e8 00 00 00 00	 call	 _CountChars_
  000de	83 c4 08	 add	 esp, 8
  000e1	50		 push	 eax
  000e2	0f b7 55 f8	 movzx	 edx, WORD PTR _c$[ebp]
  000e6	52		 push	 edx
  000e7	68 00 00 00 00	 push	 OFFSET ??_C@_1DG@IBODIFC@?$AA?7?$AAS?$AAe?$AAa?$AAr?$AAc?$AAh?$AAC?$AAh?$AAa?$AAr?$AA?3?$AA?5?$AA?$CF?$AAc@
  000ec	e8 00 00 00 00	 call	 _wprintf
  000f1	83 c4 0c	 add	 esp, 12			; 0000000cH

; 23   : 
; 24   : 	const wchar_t * str2 = L"Red Green Blue Cyan Magenta Yellow";

  000f4	c7 45 e0 00 00
	00 00		 mov	 DWORD PTR _str2$[ebp], OFFSET ??_C@_1EG@PCBEIANO@?$AAR?$AAe?$AAd?$AA?5?$AAG?$AAr?$AAe?$AAe?$AAn?$AA?5?$AAB?$AAl?$AAu?$AAe?$AA?5@

; 25   : 	wprintf(L"\nTest string: %s\n", str2);

  000fb	8b 45 e0	 mov	 eax, DWORD PTR _str2$[ebp]
  000fe	50		 push	 eax
  000ff	68 00 00 00 00	 push	 OFFSET ??_C@_1CE@LOGBMABD@?$AA?6?$AAT?$AAe?$AAs?$AAt?$AA?5?$AAs?$AAt?$AAr?$AAi?$AAn?$AAg?$AA?3?$AA?5?$AA?$CF@
  00104	e8 00 00 00 00	 call	 _wprintf
  00109	83 c4 08	 add	 esp, 8

; 26   : 	c = L'e';

  0010c	b8 65 00 00 00	 mov	 eax, 101		; 00000065H
  00111	66 89 45 f8	 mov	 WORD PTR _c$[ebp], ax

; 27   : 	wprintf(L"\tSearchChar: %c Count: %d\n", c, CountChars_(str2, c));

  00115	0f b7 45 f8	 movzx	 eax, WORD PTR _c$[ebp]
  00119	50		 push	 eax
  0011a	8b 4d e0	 mov	 ecx, DWORD PTR _str2$[ebp]
  0011d	51		 push	 ecx
  0011e	e8 00 00 00 00	 call	 _CountChars_
  00123	83 c4 08	 add	 esp, 8
  00126	50		 push	 eax
  00127	0f b7 55 f8	 movzx	 edx, WORD PTR _c$[ebp]
  0012b	52		 push	 edx
  0012c	68 00 00 00 00	 push	 OFFSET ??_C@_1DG@IBODIFC@?$AA?7?$AAS?$AAe?$AAa?$AAr?$AAc?$AAh?$AAC?$AAh?$AAa?$AAr?$AA?3?$AA?5?$AA?$CF?$AAc@
  00131	e8 00 00 00 00	 call	 _wprintf
  00136	83 c4 0c	 add	 esp, 12			; 0000000cH

; 28   : 	c = L'w';

  00139	b8 77 00 00 00	 mov	 eax, 119		; 00000077H
  0013e	66 89 45 f8	 mov	 WORD PTR _c$[ebp], ax

; 29   : 	wprintf(L"\tSearchChar: %c Count: %d\n", c, CountChars_(str2, c));

  00142	0f b7 45 f8	 movzx	 eax, WORD PTR _c$[ebp]
  00146	50		 push	 eax
  00147	8b 4d e0	 mov	 ecx, DWORD PTR _str2$[ebp]
  0014a	51		 push	 ecx
  0014b	e8 00 00 00 00	 call	 _CountChars_
  00150	83 c4 08	 add	 esp, 8
  00153	50		 push	 eax
  00154	0f b7 55 f8	 movzx	 edx, WORD PTR _c$[ebp]
  00158	52		 push	 edx
  00159	68 00 00 00 00	 push	 OFFSET ??_C@_1DG@IBODIFC@?$AA?7?$AAS?$AAe?$AAa?$AAr?$AAc?$AAh?$AAC?$AAh?$AAa?$AAr?$AA?3?$AA?5?$AA?$CF?$AAc@
  0015e	e8 00 00 00 00	 call	 _wprintf
  00163	83 c4 0c	 add	 esp, 12			; 0000000cH

; 30   : 	c = L'Q';

  00166	b8 51 00 00 00	 mov	 eax, 81			; 00000051H
  0016b	66 89 45 f8	 mov	 WORD PTR _c$[ebp], ax

; 31   : 	wprintf(L"\tSearchChar: %c Count: %d\n", c, CountChars_(str2, c));

  0016f	0f b7 45 f8	 movzx	 eax, WORD PTR _c$[ebp]
  00173	50		 push	 eax
  00174	8b 4d e0	 mov	 ecx, DWORD PTR _str2$[ebp]
  00177	51		 push	 ecx
  00178	e8 00 00 00 00	 call	 _CountChars_
  0017d	83 c4 08	 add	 esp, 8
  00180	50		 push	 eax
  00181	0f b7 55 f8	 movzx	 edx, WORD PTR _c$[ebp]
  00185	52		 push	 edx
  00186	68 00 00 00 00	 push	 OFFSET ??_C@_1DG@IBODIFC@?$AA?7?$AAS?$AAe?$AAa?$AAr?$AAc?$AAh?$AAC?$AAh?$AAa?$AAr?$AA?3?$AA?5?$AA?$CF?$AAc@
  0018b	e8 00 00 00 00	 call	 _wprintf
  00190	83 c4 0c	 add	 esp, 12			; 0000000cH

; 32   : 	c = L'l';

  00193	b8 6c 00 00 00	 mov	 eax, 108		; 0000006cH
  00198	66 89 45 f8	 mov	 WORD PTR _c$[ebp], ax

; 33   : 	wprintf(L"\tSearchChar: %c Count: %d\n", c, CountChars_(str2, c));

  0019c	0f b7 45 f8	 movzx	 eax, WORD PTR _c$[ebp]
  001a0	50		 push	 eax
  001a1	8b 4d e0	 mov	 ecx, DWORD PTR _str2$[ebp]
  001a4	51		 push	 ecx
  001a5	e8 00 00 00 00	 call	 _CountChars_
  001aa	83 c4 08	 add	 esp, 8
  001ad	50		 push	 eax
  001ae	0f b7 55 f8	 movzx	 edx, WORD PTR _c$[ebp]
  001b2	52		 push	 edx
  001b3	68 00 00 00 00	 push	 OFFSET ??_C@_1DG@IBODIFC@?$AA?7?$AAS?$AAe?$AAa?$AAr?$AAc?$AAh?$AAC?$AAh?$AAa?$AAr?$AA?3?$AA?5?$AA?$CF?$AAc@
  001b8	e8 00 00 00 00	 call	 _wprintf
  001bd	83 c4 0c	 add	 esp, 12			; 0000000cH

; 34   : 
; 35   : 	return (0);

  001c0	33 c0		 xor	 eax, eax

; 36   : }

  001c2	5f		 pop	 edi
  001c3	5e		 pop	 esi
  001c4	5b		 pop	 ebx
  001c5	81 c4 e4 00 00
	00		 add	 esp, 228		; 000000e4H
  001cb	3b ec		 cmp	 ebp, esp
  001cd	e8 00 00 00 00	 call	 __RTC_CheckEsp
  001d2	8b e5		 mov	 esp, ebp
  001d4	5d		 pop	 ebp
  001d5	c3		 ret	 0
_wmain	ENDP
_TEXT	ENDS
; Function compile flags: /Odtp /RTCsu /ZI
; File c:\program files (x86)\windows kits\10\include\10.0.17763.0\ucrt\corecrt_wstdio.h
;	COMDAT _wprintf
_TEXT	SEGMENT
__ArgList$ = -20					; size = 4
__Result$ = -8						; size = 4
__Format$ = 8						; size = 4
_wprintf PROC						; COMDAT

; 611  :     {

  00000	55		 push	 ebp
  00001	8b ec		 mov	 ebp, esp
  00003	81 ec e4 00 00
	00		 sub	 esp, 228		; 000000e4H
  00009	53		 push	 ebx
  0000a	56		 push	 esi
  0000b	57		 push	 edi
  0000c	8d bd 1c ff ff
	ff		 lea	 edi, DWORD PTR [ebp-228]
  00012	b9 39 00 00 00	 mov	 ecx, 57			; 00000039H
  00017	b8 cc cc cc cc	 mov	 eax, -858993460		; ccccccccH
  0001c	f3 ab		 rep stosd
  0001e	b9 00 00 00 00	 mov	 ecx, OFFSET __05476D76_corecrt_wstdio@h
  00023	e8 00 00 00 00	 call	 @__CheckForDebuggerJustMyCode@4

; 612  :         int _Result;
; 613  :         va_list _ArgList;
; 614  :         __crt_va_start(_ArgList, _Format);

  00028	8d 45 0c	 lea	 eax, DWORD PTR __Format$[ebp+4]
  0002b	89 45 ec	 mov	 DWORD PTR __ArgList$[ebp], eax

; 615  :         _Result = _vfwprintf_l(stdout, _Format, NULL, _ArgList);

  0002e	8b 45 ec	 mov	 eax, DWORD PTR __ArgList$[ebp]
  00031	50		 push	 eax
  00032	6a 00		 push	 0
  00034	8b 4d 08	 mov	 ecx, DWORD PTR __Format$[ebp]
  00037	51		 push	 ecx
  00038	8b f4		 mov	 esi, esp
  0003a	6a 01		 push	 1
  0003c	ff 15 00 00 00
	00		 call	 DWORD PTR __imp____acrt_iob_func
  00042	83 c4 04	 add	 esp, 4
  00045	3b f4		 cmp	 esi, esp
  00047	e8 00 00 00 00	 call	 __RTC_CheckEsp
  0004c	50		 push	 eax
  0004d	e8 00 00 00 00	 call	 __vfwprintf_l
  00052	83 c4 10	 add	 esp, 16			; 00000010H
  00055	89 45 f8	 mov	 DWORD PTR __Result$[ebp], eax

; 616  :         __crt_va_end(_ArgList);

  00058	c7 45 ec 00 00
	00 00		 mov	 DWORD PTR __ArgList$[ebp], 0

; 617  :         return _Result;

  0005f	8b 45 f8	 mov	 eax, DWORD PTR __Result$[ebp]

; 618  :     }

  00062	5f		 pop	 edi
  00063	5e		 pop	 esi
  00064	5b		 pop	 ebx
  00065	81 c4 e4 00 00
	00		 add	 esp, 228		; 000000e4H
  0006b	3b ec		 cmp	 ebp, esp
  0006d	e8 00 00 00 00	 call	 __RTC_CheckEsp
  00072	8b e5		 mov	 esp, ebp
  00074	5d		 pop	 ebp
  00075	c3		 ret	 0
_wprintf ENDP
_TEXT	ENDS
; Function compile flags: /Odtp /RTCsu /ZI
; File c:\program files (x86)\windows kits\10\include\10.0.17763.0\ucrt\corecrt_wstdio.h
;	COMDAT __vfwprintf_l
_TEXT	SEGMENT
__Stream$ = 8						; size = 4
__Format$ = 12						; size = 4
__Locale$ = 16						; size = 4
__ArgList$ = 20						; size = 4
__vfwprintf_l PROC					; COMDAT

; 305  :     {

  00000	55		 push	 ebp
  00001	8b ec		 mov	 ebp, esp
  00003	81 ec c0 00 00
	00		 sub	 esp, 192		; 000000c0H
  00009	53		 push	 ebx
  0000a	56		 push	 esi
  0000b	57		 push	 edi
  0000c	8d bd 40 ff ff
	ff		 lea	 edi, DWORD PTR [ebp-192]
  00012	b9 30 00 00 00	 mov	 ecx, 48			; 00000030H
  00017	b8 cc cc cc cc	 mov	 eax, -858993460		; ccccccccH
  0001c	f3 ab		 rep stosd
  0001e	b9 00 00 00 00	 mov	 ecx, OFFSET __05476D76_corecrt_wstdio@h
  00023	e8 00 00 00 00	 call	 @__CheckForDebuggerJustMyCode@4

; 306  :         return __stdio_common_vfwprintf(_CRT_INTERNAL_LOCAL_PRINTF_OPTIONS, _Stream, _Format, _Locale, _ArgList);

  00028	8b f4		 mov	 esi, esp
  0002a	8b 45 14	 mov	 eax, DWORD PTR __ArgList$[ebp]
  0002d	50		 push	 eax
  0002e	8b 4d 10	 mov	 ecx, DWORD PTR __Locale$[ebp]
  00031	51		 push	 ecx
  00032	8b 55 0c	 mov	 edx, DWORD PTR __Format$[ebp]
  00035	52		 push	 edx
  00036	8b 45 08	 mov	 eax, DWORD PTR __Stream$[ebp]
  00039	50		 push	 eax
  0003a	e8 00 00 00 00	 call	 ___local_stdio_printf_options
  0003f	8b 48 04	 mov	 ecx, DWORD PTR [eax+4]
  00042	51		 push	 ecx
  00043	8b 10		 mov	 edx, DWORD PTR [eax]
  00045	52		 push	 edx
  00046	ff 15 00 00 00
	00		 call	 DWORD PTR __imp____stdio_common_vfwprintf
  0004c	83 c4 18	 add	 esp, 24			; 00000018H
  0004f	3b f4		 cmp	 esi, esp
  00051	e8 00 00 00 00	 call	 __RTC_CheckEsp

; 307  :     }

  00056	5f		 pop	 edi
  00057	5e		 pop	 esi
  00058	5b		 pop	 ebx
  00059	81 c4 c0 00 00
	00		 add	 esp, 192		; 000000c0H
  0005f	3b ec		 cmp	 ebp, esp
  00061	e8 00 00 00 00	 call	 __RTC_CheckEsp
  00066	8b e5		 mov	 esp, ebp
  00068	5d		 pop	 ebp
  00069	c3		 ret	 0
__vfwprintf_l ENDP
_TEXT	ENDS
; Function compile flags: /Odtp /RTCsu /ZI
; File c:\program files (x86)\windows kits\10\include\10.0.17763.0\ucrt\corecrt_stdio_config.h
;	COMDAT ___local_stdio_printf_options
_TEXT	SEGMENT
___local_stdio_printf_options PROC			; COMDAT

; 86   :     {

  00000	55		 push	 ebp
  00001	8b ec		 mov	 ebp, esp
  00003	81 ec c0 00 00
	00		 sub	 esp, 192		; 000000c0H
  00009	53		 push	 ebx
  0000a	56		 push	 esi
  0000b	57		 push	 edi
  0000c	8d bd 40 ff ff
	ff		 lea	 edi, DWORD PTR [ebp-192]
  00012	b9 30 00 00 00	 mov	 ecx, 48			; 00000030H
  00017	b8 cc cc cc cc	 mov	 eax, -858993460		; ccccccccH
  0001c	f3 ab		 rep stosd
  0001e	b9 00 00 00 00	 mov	 ecx, OFFSET __2CC6E67D_corecrt_stdio_config@h
  00023	e8 00 00 00 00	 call	 @__CheckForDebuggerJustMyCode@4

; 87   :         static unsigned __int64 _OptionsStorage;
; 88   :         return &_OptionsStorage;

  00028	b8 00 00 00 00	 mov	 eax, OFFSET ?_OptionsStorage@?1??__local_stdio_printf_options@@9@4_KA ; `__local_stdio_printf_options'::`2'::_OptionsStorage

; 89   :     }

  0002d	5f		 pop	 edi
  0002e	5e		 pop	 esi
  0002f	5b		 pop	 ebx
  00030	81 c4 c0 00 00
	00		 add	 esp, 192		; 000000c0H
  00036	3b ec		 cmp	 ebp, esp
  00038	e8 00 00 00 00	 call	 __RTC_CheckEsp
  0003d	8b e5		 mov	 esp, ebp
  0003f	5d		 pop	 ebp
  00040	c3		 ret	 0
___local_stdio_printf_options ENDP
_TEXT	ENDS
; Function compile flags: /Odtp /RTCsu /ZI
; File c:\users\pentester\source\repos\countchars\countchars\countchars.cpp
;	COMDAT ?__empty_global_delete@@YAXPAXI@Z
_TEXT	SEGMENT
___formal$ = 8						; size = 4
___formal$ = 12						; size = 4
?__empty_global_delete@@YAXPAXI@Z PROC			; __empty_global_delete, COMDAT

  00000	55		 push	 ebp
  00001	8b ec		 mov	 ebp, esp
  00003	81 ec c0 00 00
	00		 sub	 esp, 192		; 000000c0H
  00009	53		 push	 ebx
  0000a	56		 push	 esi
  0000b	57		 push	 edi
  0000c	8d bd 40 ff ff
	ff		 lea	 edi, DWORD PTR [ebp-192]
  00012	b9 30 00 00 00	 mov	 ecx, 48			; 00000030H
  00017	b8 cc cc cc cc	 mov	 eax, -858993460		; ccccccccH
  0001c	f3 ab		 rep stosd
  0001e	b9 00 00 00 00	 mov	 ecx, OFFSET __173DFAAD_countchars@cpp
  00023	e8 00 00 00 00	 call	 @__CheckForDebuggerJustMyCode@4
  00028	5f		 pop	 edi
  00029	5e		 pop	 esi
  0002a	5b		 pop	 ebx
  0002b	81 c4 c0 00 00
	00		 add	 esp, 192		; 000000c0H
  00031	3b ec		 cmp	 ebp, esp
  00033	e8 00 00 00 00	 call	 __RTC_CheckEsp
  00038	8b e5		 mov	 esp, ebp
  0003a	5d		 pop	 ebp
  0003b	c3		 ret	 0
?__empty_global_delete@@YAXPAXI@Z ENDP			; __empty_global_delete
_TEXT	ENDS
; Function compile flags: /Odtp /RTCsu /ZI
; File c:\users\pentester\source\repos\countchars\countchars\countchars.cpp
;	COMDAT ?__empty_global_delete@@YAXPAX@Z
_TEXT	SEGMENT
___formal$ = 8						; size = 4
?__empty_global_delete@@YAXPAX@Z PROC			; __empty_global_delete, COMDAT

  00000	55		 push	 ebp
  00001	8b ec		 mov	 ebp, esp
  00003	81 ec c0 00 00
	00		 sub	 esp, 192		; 000000c0H
  00009	53		 push	 ebx
  0000a	56		 push	 esi
  0000b	57		 push	 edi
  0000c	8d bd 40 ff ff
	ff		 lea	 edi, DWORD PTR [ebp-192]
  00012	b9 30 00 00 00	 mov	 ecx, 48			; 00000030H
  00017	b8 cc cc cc cc	 mov	 eax, -858993460		; ccccccccH
  0001c	f3 ab		 rep stosd
  0001e	b9 00 00 00 00	 mov	 ecx, OFFSET __173DFAAD_countchars@cpp
  00023	e8 00 00 00 00	 call	 @__CheckForDebuggerJustMyCode@4
  00028	5f		 pop	 edi
  00029	5e		 pop	 esi
  0002a	5b		 pop	 ebx
  0002b	81 c4 c0 00 00
	00		 add	 esp, 192		; 000000c0H
  00031	3b ec		 cmp	 ebp, esp
  00033	e8 00 00 00 00	 call	 __RTC_CheckEsp
  00038	8b e5		 mov	 esp, ebp
  0003a	5d		 pop	 ebp
  0003b	c3		 ret	 0
?__empty_global_delete@@YAXPAX@Z ENDP			; __empty_global_delete
_TEXT	ENDS
END
