; Listing generated by Microsoft (R) Optimizing Compiler Version 19.16.27048.0 

	TITLE	C:\Users\Pentester\source\repos\CreateStruct\CreateStruct\CreateStruct.cpp
	.686P
	.XMM
	include listing.inc
	.model	flat

INCLUDELIB MSVCRTD
INCLUDELIB OLDNAMES

msvcjmc	SEGMENT
__2CC6E67D_corecrt_stdio_config@h DB 01H
__05476D76_corecrt_wstdio@h DB 01H
__A452D4A0_stdio@h DB 01H
__4384A2D9_corecrt_memcpy_s@h DB 01H
__41381B41_corecrt_wconio@h DB 01H
__F0CC4AC4_corecrt_wio@h DB 01H
__4E51A221_corecrt_wstring@h DB 01H
__C0802A2B_corecrt_wtime@h DB 01H
__A40A425D_stat@h DB 01H
__5A74375D_wchar@h DB 01H
__6B9C2DC0_tchar@h DB 01H
__19BD02A5_createstruct@cpp DB 01H
msvcjmc	ENDS
PUBLIC	___local_stdio_printf_options
PUBLIC	__vfprintf_l
PUBLIC	_printf
PUBLIC	?PrintTestStruct@@YAXPBDPBUTestStruct@@@Z	; PrintTestStruct
PUBLIC	_wmain
PUBLIC	__JustMyCode_Default
PUBLIC	?_OptionsStorage@?1??__local_stdio_printf_options@@9@4_KA ; `__local_stdio_printf_options'::`2'::_OptionsStorage
PUBLIC	??_C@_0BL@PMGKOBJI@Content?5of?5TestStruct?5?8ts?8@ ; `string'
PUBLIC	??_C@_03OFAPEBGM@?$CFs?6@			; `string'
PUBLIC	??_C@_0P@PDAGJPPD@?7ts?9?$DOVal8?3?5?$CFd?6@	; `string'
PUBLIC	??_C@_0BA@NALELBD@?7ts?9?$DOVal16?3?5?$CFd?6@	; `string'
PUBLIC	??_C@_0BA@LLGBGIHN@?7ts?9?$DOVal32?3?5?$CFd?6@	; `string'
PUBLIC	??_C@_0BC@NHMHIPBG@?7ts?9?$DOVal64?3?5?$CFlld?6@ ; `string'
EXTRN	__imp____acrt_iob_func:PROC
EXTRN	__imp____stdio_common_vfprintf:PROC
EXTRN	_CreateStruct_:PROC
EXTRN	_ReleaseTestStruct_:PROC
EXTRN	@__CheckForDebuggerJustMyCode@4:PROC
EXTRN	__RTC_CheckEsp:PROC
EXTRN	__RTC_InitBase:PROC
EXTRN	__RTC_Shutdown:PROC
;	COMDAT ?_OptionsStorage@?1??__local_stdio_printf_options@@9@4_KA
_BSS	SEGMENT
?_OptionsStorage@?1??__local_stdio_printf_options@@9@4_KA DQ 01H DUP (?) ; `__local_stdio_printf_options'::`2'::_OptionsStorage
_BSS	ENDS
;	COMDAT rtc$TMZ
rtc$TMZ	SEGMENT
__RTC_Shutdown.rtc$TMZ DD FLAT:__RTC_Shutdown
rtc$TMZ	ENDS
;	COMDAT rtc$IMZ
rtc$IMZ	SEGMENT
__RTC_InitBase.rtc$IMZ DD FLAT:__RTC_InitBase
rtc$IMZ	ENDS
;	COMDAT ??_C@_0BC@NHMHIPBG@?7ts?9?$DOVal64?3?5?$CFlld?6@
CONST	SEGMENT
??_C@_0BC@NHMHIPBG@?7ts?9?$DOVal64?3?5?$CFlld?6@ DB 09H, 'ts->Val64: %lld'
	DB	0aH, 00H					; `string'
CONST	ENDS
;	COMDAT ??_C@_0BA@LLGBGIHN@?7ts?9?$DOVal32?3?5?$CFd?6@
CONST	SEGMENT
??_C@_0BA@LLGBGIHN@?7ts?9?$DOVal32?3?5?$CFd?6@ DB 09H, 'ts->Val32: %d', 0aH
	DB	00H						; `string'
CONST	ENDS
;	COMDAT ??_C@_0BA@NALELBD@?7ts?9?$DOVal16?3?5?$CFd?6@
CONST	SEGMENT
??_C@_0BA@NALELBD@?7ts?9?$DOVal16?3?5?$CFd?6@ DB 09H, 'ts->Val16: %d', 0aH
	DB	00H						; `string'
CONST	ENDS
;	COMDAT ??_C@_0P@PDAGJPPD@?7ts?9?$DOVal8?3?5?$CFd?6@
CONST	SEGMENT
??_C@_0P@PDAGJPPD@?7ts?9?$DOVal8?3?5?$CFd?6@ DB 09H, 'ts->Val8: %d', 0aH, 00H ; `string'
CONST	ENDS
;	COMDAT ??_C@_03OFAPEBGM@?$CFs?6@
CONST	SEGMENT
??_C@_03OFAPEBGM@?$CFs?6@ DB '%s', 0aH, 00H		; `string'
CONST	ENDS
;	COMDAT ??_C@_0BL@PMGKOBJI@Content?5of?5TestStruct?5?8ts?8@
CONST	SEGMENT
??_C@_0BL@PMGKOBJI@Content?5of?5TestStruct?5?8ts?8@ DB 'Content of TestSt'
	DB	'ruct ''ts''', 00H				; `string'
CONST	ENDS
; Function compile flags: /Odt
;	COMDAT __JustMyCode_Default
_TEXT	SEGMENT
__JustMyCode_Default PROC				; COMDAT
  00000	55		 push	 ebp
  00001	8b ec		 mov	 ebp, esp
  00003	5d		 pop	 ebp
  00004	c3		 ret	 0
__JustMyCode_Default ENDP
_TEXT	ENDS
; Function compile flags: /Odtp /RTCsu /ZI
; File c:\users\pentester\source\repos\createstruct\createstruct\createstruct.cpp
;	COMDAT _wmain
_TEXT	SEGMENT
_ts$ = -8						; size = 4
_argc$ = 8						; size = 4
_argv$ = 12						; size = 4
_wmain	PROC						; COMDAT

; 9    : int _tmain(int argc, _TCHAR * argv[]) {

  00000	55		 push	 ebp
  00001	8b ec		 mov	 ebp, esp
  00003	81 ec cc 00 00
	00		 sub	 esp, 204		; 000000ccH
  00009	53		 push	 ebx
  0000a	56		 push	 esi
  0000b	57		 push	 edi
  0000c	8d bd 34 ff ff
	ff		 lea	 edi, DWORD PTR [ebp-204]
  00012	b9 33 00 00 00	 mov	 ecx, 51			; 00000033H
  00017	b8 cc cc cc cc	 mov	 eax, -858993460		; ccccccccH
  0001c	f3 ab		 rep stosd
  0001e	b9 00 00 00 00	 mov	 ecx, OFFSET __19BD02A5_createstruct@cpp
  00023	e8 00 00 00 00	 call	 @__CheckForDebuggerJustMyCode@4

; 10   : 	TestStruct * ts = CreateStruct_(40, -401, 400002, -4000000003LL);

  00028	6a ff		 push	 -1
  0002a	68 fd d7 94 11	 push	 294967293		; 1194d7fdH
  0002f	68 82 1a 06 00	 push	 400002			; 00061a82H
  00034	68 6f fe ff ff	 push	 -401			; fffffe6fH
  00039	6a 28		 push	 40			; 00000028H
  0003b	e8 00 00 00 00	 call	 _CreateStruct_
  00040	83 c4 14	 add	 esp, 20			; 00000014H
  00043	89 45 f8	 mov	 DWORD PTR _ts$[ebp], eax

; 11   : 
; 12   : 	PrintTestStruct("Content of TestStruct 'ts'", ts);

  00046	8b 45 f8	 mov	 eax, DWORD PTR _ts$[ebp]
  00049	50		 push	 eax
  0004a	68 00 00 00 00	 push	 OFFSET ??_C@_0BL@PMGKOBJI@Content?5of?5TestStruct?5?8ts?8@
  0004f	e8 00 00 00 00	 call	 ?PrintTestStruct@@YAXPBDPBUTestStruct@@@Z ; PrintTestStruct
  00054	83 c4 08	 add	 esp, 8

; 13   : 	ReleaseTestStruct_(ts);

  00057	8b 45 f8	 mov	 eax, DWORD PTR _ts$[ebp]
  0005a	50		 push	 eax
  0005b	e8 00 00 00 00	 call	 _ReleaseTestStruct_
  00060	83 c4 04	 add	 esp, 4

; 14   : 
; 15   : 	return (0);

  00063	33 c0		 xor	 eax, eax

; 16   : }

  00065	5f		 pop	 edi
  00066	5e		 pop	 esi
  00067	5b		 pop	 ebx
  00068	81 c4 cc 00 00
	00		 add	 esp, 204		; 000000ccH
  0006e	3b ec		 cmp	 ebp, esp
  00070	e8 00 00 00 00	 call	 __RTC_CheckEsp
  00075	8b e5		 mov	 esp, ebp
  00077	5d		 pop	 ebp
  00078	c3		 ret	 0
_wmain	ENDP
_TEXT	ENDS
; Function compile flags: /Odtp /RTCsu /ZI
; File c:\users\pentester\source\repos\createstruct\createstruct\createstruct.cpp
;	COMDAT ?PrintTestStruct@@YAXPBDPBUTestStruct@@@Z
_TEXT	SEGMENT
_msg$ = 8						; size = 4
_ts$ = 12						; size = 4
?PrintTestStruct@@YAXPBDPBUTestStruct@@@Z PROC		; PrintTestStruct, COMDAT

; 17   : void PrintTestStruct(const char * msg, const TestStruct * ts) {

  00000	55		 push	 ebp
  00001	8b ec		 mov	 ebp, esp
  00003	81 ec c0 00 00
	00		 sub	 esp, 192		; 000000c0H
  00009	53		 push	 ebx
  0000a	56		 push	 esi
  0000b	57		 push	 edi
  0000c	8d bd 40 ff ff
	ff		 lea	 edi, DWORD PTR [ebp-192]
  00012	b9 30 00 00 00	 mov	 ecx, 48			; 00000030H
  00017	b8 cc cc cc cc	 mov	 eax, -858993460		; ccccccccH
  0001c	f3 ab		 rep stosd
  0001e	b9 00 00 00 00	 mov	 ecx, OFFSET __19BD02A5_createstruct@cpp
  00023	e8 00 00 00 00	 call	 @__CheckForDebuggerJustMyCode@4

; 18   : 	printf("%s\n", msg);

  00028	8b 45 08	 mov	 eax, DWORD PTR _msg$[ebp]
  0002b	50		 push	 eax
  0002c	68 00 00 00 00	 push	 OFFSET ??_C@_03OFAPEBGM@?$CFs?6@
  00031	e8 00 00 00 00	 call	 _printf
  00036	83 c4 08	 add	 esp, 8

; 19   : 	printf("\tts->Val8: %d\n", ts->Val8);

  00039	8b 45 0c	 mov	 eax, DWORD PTR _ts$[ebp]
  0003c	0f be 08	 movsx	 ecx, BYTE PTR [eax]
  0003f	51		 push	 ecx
  00040	68 00 00 00 00	 push	 OFFSET ??_C@_0P@PDAGJPPD@?7ts?9?$DOVal8?3?5?$CFd?6@
  00045	e8 00 00 00 00	 call	 _printf
  0004a	83 c4 08	 add	 esp, 8

; 20   : 	printf("\tts->Val16: %d\n", ts->Val16);

  0004d	8b 45 0c	 mov	 eax, DWORD PTR _ts$[ebp]
  00050	0f bf 48 02	 movsx	 ecx, WORD PTR [eax+2]
  00054	51		 push	 ecx
  00055	68 00 00 00 00	 push	 OFFSET ??_C@_0BA@NALELBD@?7ts?9?$DOVal16?3?5?$CFd?6@
  0005a	e8 00 00 00 00	 call	 _printf
  0005f	83 c4 08	 add	 esp, 8

; 21   : 	printf("\tts->Val32: %d\n", ts->Val32);

  00062	8b 45 0c	 mov	 eax, DWORD PTR _ts$[ebp]
  00065	8b 48 04	 mov	 ecx, DWORD PTR [eax+4]
  00068	51		 push	 ecx
  00069	68 00 00 00 00	 push	 OFFSET ??_C@_0BA@LLGBGIHN@?7ts?9?$DOVal32?3?5?$CFd?6@
  0006e	e8 00 00 00 00	 call	 _printf
  00073	83 c4 08	 add	 esp, 8

; 22   : 	printf("\tts->Val64: %lld\n", ts->Val64);

  00076	8b 45 0c	 mov	 eax, DWORD PTR _ts$[ebp]
  00079	8b 48 0c	 mov	 ecx, DWORD PTR [eax+12]
  0007c	51		 push	 ecx
  0007d	8b 50 08	 mov	 edx, DWORD PTR [eax+8]
  00080	52		 push	 edx
  00081	68 00 00 00 00	 push	 OFFSET ??_C@_0BC@NHMHIPBG@?7ts?9?$DOVal64?3?5?$CFlld?6@
  00086	e8 00 00 00 00	 call	 _printf
  0008b	83 c4 0c	 add	 esp, 12			; 0000000cH

; 23   : }

  0008e	5f		 pop	 edi
  0008f	5e		 pop	 esi
  00090	5b		 pop	 ebx
  00091	81 c4 c0 00 00
	00		 add	 esp, 192		; 000000c0H
  00097	3b ec		 cmp	 ebp, esp
  00099	e8 00 00 00 00	 call	 __RTC_CheckEsp
  0009e	8b e5		 mov	 esp, ebp
  000a0	5d		 pop	 ebp
  000a1	c3		 ret	 0
?PrintTestStruct@@YAXPBDPBUTestStruct@@@Z ENDP		; PrintTestStruct
_TEXT	ENDS
; Function compile flags: /Odtp /RTCsu /ZI
; File c:\program files (x86)\windows kits\10\include\10.0.17763.0\ucrt\stdio.h
;	COMDAT _printf
_TEXT	SEGMENT
__ArgList$ = -20					; size = 4
__Result$ = -8						; size = 4
__Format$ = 8						; size = 4
_printf	PROC						; COMDAT

; 954  :     {

  00000	55		 push	 ebp
  00001	8b ec		 mov	 ebp, esp
  00003	81 ec e4 00 00
	00		 sub	 esp, 228		; 000000e4H
  00009	53		 push	 ebx
  0000a	56		 push	 esi
  0000b	57		 push	 edi
  0000c	8d bd 1c ff ff
	ff		 lea	 edi, DWORD PTR [ebp-228]
  00012	b9 39 00 00 00	 mov	 ecx, 57			; 00000039H
  00017	b8 cc cc cc cc	 mov	 eax, -858993460		; ccccccccH
  0001c	f3 ab		 rep stosd
  0001e	b9 00 00 00 00	 mov	 ecx, OFFSET __A452D4A0_stdio@h
  00023	e8 00 00 00 00	 call	 @__CheckForDebuggerJustMyCode@4

; 955  :         int _Result;
; 956  :         va_list _ArgList;
; 957  :         __crt_va_start(_ArgList, _Format);

  00028	8d 45 0c	 lea	 eax, DWORD PTR __Format$[ebp+4]
  0002b	89 45 ec	 mov	 DWORD PTR __ArgList$[ebp], eax

; 958  :         _Result = _vfprintf_l(stdout, _Format, NULL, _ArgList);

  0002e	8b 45 ec	 mov	 eax, DWORD PTR __ArgList$[ebp]
  00031	50		 push	 eax
  00032	6a 00		 push	 0
  00034	8b 4d 08	 mov	 ecx, DWORD PTR __Format$[ebp]
  00037	51		 push	 ecx
  00038	8b f4		 mov	 esi, esp
  0003a	6a 01		 push	 1
  0003c	ff 15 00 00 00
	00		 call	 DWORD PTR __imp____acrt_iob_func
  00042	83 c4 04	 add	 esp, 4
  00045	3b f4		 cmp	 esi, esp
  00047	e8 00 00 00 00	 call	 __RTC_CheckEsp
  0004c	50		 push	 eax
  0004d	e8 00 00 00 00	 call	 __vfprintf_l
  00052	83 c4 10	 add	 esp, 16			; 00000010H
  00055	89 45 f8	 mov	 DWORD PTR __Result$[ebp], eax

; 959  :         __crt_va_end(_ArgList);

  00058	c7 45 ec 00 00
	00 00		 mov	 DWORD PTR __ArgList$[ebp], 0

; 960  :         return _Result;

  0005f	8b 45 f8	 mov	 eax, DWORD PTR __Result$[ebp]

; 961  :     }

  00062	5f		 pop	 edi
  00063	5e		 pop	 esi
  00064	5b		 pop	 ebx
  00065	81 c4 e4 00 00
	00		 add	 esp, 228		; 000000e4H
  0006b	3b ec		 cmp	 ebp, esp
  0006d	e8 00 00 00 00	 call	 __RTC_CheckEsp
  00072	8b e5		 mov	 esp, ebp
  00074	5d		 pop	 ebp
  00075	c3		 ret	 0
_printf	ENDP
_TEXT	ENDS
; Function compile flags: /Odtp /RTCsu /ZI
; File c:\program files (x86)\windows kits\10\include\10.0.17763.0\ucrt\stdio.h
;	COMDAT __vfprintf_l
_TEXT	SEGMENT
__Stream$ = 8						; size = 4
__Format$ = 12						; size = 4
__Locale$ = 16						; size = 4
__ArgList$ = 20						; size = 4
__vfprintf_l PROC					; COMDAT

; 642  :     {

  00000	55		 push	 ebp
  00001	8b ec		 mov	 ebp, esp
  00003	81 ec c0 00 00
	00		 sub	 esp, 192		; 000000c0H
  00009	53		 push	 ebx
  0000a	56		 push	 esi
  0000b	57		 push	 edi
  0000c	8d bd 40 ff ff
	ff		 lea	 edi, DWORD PTR [ebp-192]
  00012	b9 30 00 00 00	 mov	 ecx, 48			; 00000030H
  00017	b8 cc cc cc cc	 mov	 eax, -858993460		; ccccccccH
  0001c	f3 ab		 rep stosd
  0001e	b9 00 00 00 00	 mov	 ecx, OFFSET __A452D4A0_stdio@h
  00023	e8 00 00 00 00	 call	 @__CheckForDebuggerJustMyCode@4

; 643  :         return __stdio_common_vfprintf(_CRT_INTERNAL_LOCAL_PRINTF_OPTIONS, _Stream, _Format, _Locale, _ArgList);

  00028	8b f4		 mov	 esi, esp
  0002a	8b 45 14	 mov	 eax, DWORD PTR __ArgList$[ebp]
  0002d	50		 push	 eax
  0002e	8b 4d 10	 mov	 ecx, DWORD PTR __Locale$[ebp]
  00031	51		 push	 ecx
  00032	8b 55 0c	 mov	 edx, DWORD PTR __Format$[ebp]
  00035	52		 push	 edx
  00036	8b 45 08	 mov	 eax, DWORD PTR __Stream$[ebp]
  00039	50		 push	 eax
  0003a	e8 00 00 00 00	 call	 ___local_stdio_printf_options
  0003f	8b 48 04	 mov	 ecx, DWORD PTR [eax+4]
  00042	51		 push	 ecx
  00043	8b 10		 mov	 edx, DWORD PTR [eax]
  00045	52		 push	 edx
  00046	ff 15 00 00 00
	00		 call	 DWORD PTR __imp____stdio_common_vfprintf
  0004c	83 c4 18	 add	 esp, 24			; 00000018H
  0004f	3b f4		 cmp	 esi, esp
  00051	e8 00 00 00 00	 call	 __RTC_CheckEsp

; 644  :     }

  00056	5f		 pop	 edi
  00057	5e		 pop	 esi
  00058	5b		 pop	 ebx
  00059	81 c4 c0 00 00
	00		 add	 esp, 192		; 000000c0H
  0005f	3b ec		 cmp	 ebp, esp
  00061	e8 00 00 00 00	 call	 __RTC_CheckEsp
  00066	8b e5		 mov	 esp, ebp
  00068	5d		 pop	 ebp
  00069	c3		 ret	 0
__vfprintf_l ENDP
_TEXT	ENDS
; Function compile flags: /Odtp /RTCsu /ZI
; File c:\program files (x86)\windows kits\10\include\10.0.17763.0\ucrt\corecrt_stdio_config.h
;	COMDAT ___local_stdio_printf_options
_TEXT	SEGMENT
___local_stdio_printf_options PROC			; COMDAT

; 86   :     {

  00000	55		 push	 ebp
  00001	8b ec		 mov	 ebp, esp
  00003	81 ec c0 00 00
	00		 sub	 esp, 192		; 000000c0H
  00009	53		 push	 ebx
  0000a	56		 push	 esi
  0000b	57		 push	 edi
  0000c	8d bd 40 ff ff
	ff		 lea	 edi, DWORD PTR [ebp-192]
  00012	b9 30 00 00 00	 mov	 ecx, 48			; 00000030H
  00017	b8 cc cc cc cc	 mov	 eax, -858993460		; ccccccccH
  0001c	f3 ab		 rep stosd
  0001e	b9 00 00 00 00	 mov	 ecx, OFFSET __2CC6E67D_corecrt_stdio_config@h
  00023	e8 00 00 00 00	 call	 @__CheckForDebuggerJustMyCode@4

; 87   :         static unsigned __int64 _OptionsStorage;
; 88   :         return &_OptionsStorage;

  00028	b8 00 00 00 00	 mov	 eax, OFFSET ?_OptionsStorage@?1??__local_stdio_printf_options@@9@4_KA ; `__local_stdio_printf_options'::`2'::_OptionsStorage

; 89   :     }

  0002d	5f		 pop	 edi
  0002e	5e		 pop	 esi
  0002f	5b		 pop	 ebx
  00030	81 c4 c0 00 00
	00		 add	 esp, 192		; 000000c0H
  00036	3b ec		 cmp	 ebp, esp
  00038	e8 00 00 00 00	 call	 __RTC_CheckEsp
  0003d	8b e5		 mov	 esp, ebp
  0003f	5d		 pop	 ebp
  00040	c3		 ret	 0
___local_stdio_printf_options ENDP
_TEXT	ENDS
END
