	.file	"circulo.cpp"
	.intel_syntax noprefix
	.text
.Ltext0:
	.section	.rodata
	.type	_ZStL19piecewise_construct, @object
	.size	_ZStL19piecewise_construct, 1
_ZStL19piecewise_construct:
	.zero	1
	.local	_ZStL8__ioinit
	.comm	_ZStL8__ioinit,1,1
	.text
	.align 2
	.globl	_ZN7Circulo8CalcAreaEv
	.type	_ZN7Circulo8CalcAreaEv, @function
_ZN7Circulo8CalcAreaEv:
.LFB1572:
	.file 1 "circulo.h"
	.loc 1 12 1
	.cfi_startproc
	push	rbp
	.cfi_def_cfa_offset 16
	.cfi_offset 6, -16
	mov	rbp, rsp
	.cfi_def_cfa_register 6
	mov	QWORD PTR -8[rbp], rdi
	.loc 1 13 18
	mov	rax, QWORD PTR -8[rbp]
	movsd	xmm1, QWORD PTR [rax]
	.loc 1 13 16
	movsd	xmm0, QWORD PTR .LC0[rip]
	mulsd	xmm1, xmm0
	.loc 1 13 26
	mov	rax, QWORD PTR -8[rbp]
	movsd	xmm0, QWORD PTR [rax]
	mulsd	xmm0, xmm1
	movq	rax, xmm0
	.loc 1 14 1
	movq	xmm0, rax
	pop	rbp
	.cfi_def_cfa 7, 8
	ret
	.cfi_endproc
.LFE1572:
	.size	_ZN7Circulo8CalcAreaEv, .-_ZN7Circulo8CalcAreaEv
	.align 2
	.globl	_ZN7Circulo8setRadioEd
	.type	_ZN7Circulo8setRadioEd, @function
_ZN7Circulo8setRadioEd:
.LFB1573:
	.loc 1 17 1
	.cfi_startproc
	push	rbp
	.cfi_def_cfa_offset 16
	.cfi_offset 6, -16
	mov	rbp, rsp
	.cfi_def_cfa_register 6
	mov	QWORD PTR -8[rbp], rdi
	movsd	QWORD PTR -16[rbp], xmm0
	.loc 1 18 8
	mov	rax, QWORD PTR -8[rbp]
	movsd	xmm0, QWORD PTR -16[rbp]
	movsd	QWORD PTR [rax], xmm0
	.loc 1 19 1
	nop
	pop	rbp
	.cfi_def_cfa 7, 8
	ret
	.cfi_endproc
.LFE1573:
	.size	_ZN7Circulo8setRadioEd, .-_ZN7Circulo8setRadioEd
	.align 2
	.globl	_ZN7Circulo8getRadioEv
	.type	_ZN7Circulo8getRadioEv, @function
_ZN7Circulo8getRadioEv:
.LFB1574:
	.loc 1 22 1
	.cfi_startproc
	push	rbp
	.cfi_def_cfa_offset 16
	.cfi_offset 6, -16
	mov	rbp, rsp
	.cfi_def_cfa_register 6
	mov	QWORD PTR -8[rbp], rdi
	.loc 1 23 9
	mov	rax, QWORD PTR -8[rbp]
	movsd	xmm0, QWORD PTR [rax]
	movq	rax, xmm0
	.loc 1 24 1
	movq	xmm0, rax
	pop	rbp
	.cfi_def_cfa 7, 8
	ret
	.cfi_endproc
.LFE1574:
	.size	_ZN7Circulo8getRadioEv, .-_ZN7Circulo8getRadioEv
	.globl	main
	.type	main, @function
main:
.LFB1575:
	.file 2 "circulo.cpp"
	.loc 2 7 1
	.cfi_startproc
	push	rbp
	.cfi_def_cfa_offset 16
	.cfi_offset 6, -16
	mov	rbp, rsp
	.cfi_def_cfa_register 6
	sub	rsp, 16
	.loc 2 11 12
	mov	rdx, QWORD PTR .LC1[rip]
	lea	rax, -16[rbp]
	movq	xmm0, rdx
	mov	rdi, rax
	call	_ZN7Circulo8setRadioEd
	.loc 2 12 19
	lea	rax, -16[rbp]
	mov	rdi, rax
	call	_ZN7Circulo8CalcAreaEv
	movq	rax, xmm0
	mov	QWORD PTR -8[rbp], rax
	.loc 2 14 9
	mov	rax, QWORD PTR -8[rbp]
	movq	xmm0, rax
	lea	rdi, _ZSt4cout[rip]
	call	_ZNSolsEd@PLT
	mov	rdx, rax
	.loc 2 14 16
	mov	rax, QWORD PTR _ZSt4endlIcSt11char_traitsIcEERSt13basic_ostreamIT_T0_ES6_@GOTPCREL[rip]
	mov	rsi, rax
	mov	rdi, rdx
	call	_ZNSolsEPFRSoS_E@PLT
	.loc 2 16 11
	mov	eax, 0
	.loc 2 17 1
	leave
	.cfi_def_cfa 7, 8
	ret
	.cfi_endproc
.LFE1575:
	.size	main, .-main
	.type	_Z41__static_initialization_and_destruction_0ii, @function
_Z41__static_initialization_and_destruction_0ii:
.LFB2074:
	.loc 2 17 1
	.cfi_startproc
	push	rbp
	.cfi_def_cfa_offset 16
	.cfi_offset 6, -16
	mov	rbp, rsp
	.cfi_def_cfa_register 6
	sub	rsp, 16
	mov	DWORD PTR -4[rbp], edi
	mov	DWORD PTR -8[rbp], esi
	.loc 2 17 1
	cmp	DWORD PTR -4[rbp], 1
	jne	.L10
	.loc 2 17 1 is_stmt 0 discriminator 1
	cmp	DWORD PTR -8[rbp], 65535
	jne	.L10
	.file 3 "/usr/include/c++/10/iostream"
	.loc 3 74 25 is_stmt 1
	lea	rdi, _ZStL8__ioinit[rip]
	call	_ZNSt8ios_base4InitC1Ev@PLT
	lea	rdx, __dso_handle[rip]
	lea	rsi, _ZStL8__ioinit[rip]
	mov	rax, QWORD PTR _ZNSt8ios_base4InitD1Ev@GOTPCREL[rip]
	mov	rdi, rax
	call	__cxa_atexit@PLT
.L10:
	.loc 2 17 1
	nop
	leave
	.cfi_def_cfa 7, 8
	ret
	.cfi_endproc
.LFE2074:
	.size	_Z41__static_initialization_and_destruction_0ii, .-_Z41__static_initialization_and_destruction_0ii
	.type	_GLOBAL__sub_I__ZN7Circulo8CalcAreaEv, @function
_GLOBAL__sub_I__ZN7Circulo8CalcAreaEv:
.LFB2075:
	.loc 2 17 1
	.cfi_startproc
	push	rbp
	.cfi_def_cfa_offset 16
	.cfi_offset 6, -16
	mov	rbp, rsp
	.cfi_def_cfa_register 6
	.loc 2 17 1
	mov	esi, 65535
	mov	edi, 1
	call	_Z41__static_initialization_and_destruction_0ii
	pop	rbp
	.cfi_def_cfa 7, 8
	ret
	.cfi_endproc
.LFE2075:
	.size	_GLOBAL__sub_I__ZN7Circulo8CalcAreaEv, .-_GLOBAL__sub_I__ZN7Circulo8CalcAreaEv
	.section	.init_array,"aw"
	.align 8
	.quad	_GLOBAL__sub_I__ZN7Circulo8CalcAreaEv
	.section	.rodata
	.align 8
.LC0:
	.long	776530087
	.long	1074340351
	.align 8
.LC1:
	.long	0
	.long	1076101120
	.text
.Letext0:
	.file 4 "/usr/include/c++/10/cwchar"
	.file 5 "/usr/include/c++/10/bits/exception_ptr.h"
	.file 6 "/usr/include/x86_64-linux-gnu/c++/10/bits/c++config.h"
	.file 7 "/usr/include/c++/10/type_traits"
	.file 8 "/usr/include/c++/10/bits/cpp_type_traits.h"
	.file 9 "/usr/include/c++/10/bits/stl_pair.h"
	.file 10 "/usr/include/c++/10/debug/debug.h"
	.file 11 "/usr/include/c++/10/bits/char_traits.h"
	.file 12 "/usr/include/c++/10/cstdint"
	.file 13 "/usr/include/c++/10/clocale"
	.file 14 "/usr/include/c++/10/cstdlib"
	.file 15 "/usr/include/c++/10/cstdio"
	.file 16 "/usr/include/c++/10/bits/basic_string.h"
	.file 17 "/usr/include/c++/10/system_error"
	.file 18 "/usr/include/c++/10/bits/ios_base.h"
	.file 19 "/usr/include/c++/10/cwctype"
	.file 20 "/usr/include/c++/10/iosfwd"
	.file 21 "/usr/include/c++/10/bits/predefined_ops.h"
	.file 22 "/usr/lib/gcc/x86_64-linux-gnu/10/include/stddef.h"
	.file 23 "<built-in>"
	.file 24 "/usr/include/x86_64-linux-gnu/bits/types/wint_t.h"
	.file 25 "/usr/include/x86_64-linux-gnu/bits/types/__mbstate_t.h"
	.file 26 "/usr/include/x86_64-linux-gnu/bits/types/mbstate_t.h"
	.file 27 "/usr/include/x86_64-linux-gnu/bits/types/__FILE.h"
	.file 28 "/usr/include/x86_64-linux-gnu/bits/types/struct_FILE.h"
	.file 29 "/usr/include/x86_64-linux-gnu/bits/types/FILE.h"
	.file 30 "/usr/include/wchar.h"
	.file 31 "/usr/include/x86_64-linux-gnu/bits/types/struct_tm.h"
	.file 32 "/usr/include/x86_64-linux-gnu/bits/types.h"
	.file 33 "/usr/include/x86_64-linux-gnu/bits/stdint-intn.h"
	.file 34 "/usr/include/x86_64-linux-gnu/bits/stdint-uintn.h"
	.file 35 "/usr/include/stdint.h"
	.file 36 "/usr/include/locale.h"
	.file 37 "/usr/include/x86_64-linux-gnu/c++/10/bits/atomic_word.h"
	.file 38 "/usr/include/stdlib.h"
	.file 39 "/usr/include/x86_64-linux-gnu/bits/types/__fpos_t.h"
	.file 40 "/usr/include/stdio.h"
	.file 41 "/usr/include/x86_64-linux-gnu/bits/wctype-wchar.h"
	.file 42 "/usr/include/wctype.h"
	.section	.note.GNU-stack,"",@progbits
